target datalayout = "e-m:e-p270:32:32-p271:32:32-p272:64:64-i64:64-i128:128-f80:128-n8:16:32:64-S128"
target triple = "x86_64-pc-linux-gnu"

%struct.expert_field = type { i32, i32 }
%struct._packet_info = type { ptr, ptr, i32, i32, %struct.nstime_t, %struct.nstime_t, %struct.nstime_t, i8, ptr, ptr, ptr, ptr, %struct._address, %struct._address, %struct._address, %struct._address, %struct._address, %struct._address, i32, ptr, i8, [3 x i8], %struct.anon, i32, i32, i32, i32, ptr, i8, ptr, ptr, i16, i16, i32, i32, i16, i32, i32, ptr, ptr, ptr, i8, i8, i16, i16, i16, i32, i16, i16, ptr, ptr, ptr, ptr, ptr, i32, i32 }
%struct.nstime_t = type { i64, i32 }
%struct._address = type { i32, i32, ptr, ptr }
%struct.anon = type { i8, [3 x i8] }

@ei_gsm_a_gm_extraneous_data = internal global %struct.expert_field zeroinitializer, align 4
@.str.83 = private unnamed_addr constant [1 x i8] zeroinitializer, align 1
@ei_gsm_a_gm_missing_mandatory_element = internal global %struct.expert_field zeroinitializer, align 4
@.str.1095 = private unnamed_addr constant [62 x i8] c"Missing Mandatory element %s%s, rest of dissection is suspect\00", align 1
@.str.1136 = private unnamed_addr constant [24 x i8] c" - Back-off timer value\00", align 1

; Function Attrs: null_pointer_is_valid sspstrong uwtable
define internal void @dtap_sm_act_sec_pdp_rej(ptr noundef %0, ptr noundef %1, ptr noundef %2, i32 noundef %3, i32 noundef %4) #1 {
  %6 = alloca ptr, align 8
  %7 = alloca ptr, align 8
  %8 = alloca ptr, align 8
  %9 = alloca i32, align 4
  %10 = alloca i32, align 4
  %11 = alloca i32, align 4
  %12 = alloca i32, align 4
  %13 = alloca i32, align 4
  %14 = alloca i32, align 4
  store ptr %0, ptr %6, align 8
  store ptr %1, ptr %7, align 8
  store ptr %2, ptr %8, align 8
  store i32 %3, ptr %9, align 4
  store i32 %4, ptr %10, align 4
  call void @llvm.lifetime.start.p0(i64 4, ptr %11) #6
  call void @llvm.lifetime.start.p0(i64 4, ptr %12) #6
  call void @llvm.lifetime.start.p0(i64 4, ptr %13) #6
  %15 = load i32, ptr %9, align 4
  store i32 %15, ptr %11, align 4
  %16 = load i32, ptr %10, align 4
  store i32 %16, ptr %13, align 4
  %17 = load ptr, ptr %8, align 8
  %18 = getelementptr inbounds nuw %struct._packet_info, ptr %17, i32 0, i32 37
  store i32 -1, ptr %18, align 4
  %19 = load ptr, ptr %8, align 8
  %20 = getelementptr inbounds nuw %struct._packet_info, ptr %19, i32 0, i32 46
  store i32 1, ptr %20, align 8
  %21 = load i32, ptr %13, align 4
  %22 = icmp sgt i32 %21, 0
  br i1 %22, label %23, label %38

23:                                               ; preds = %5
  %24 = load ptr, ptr %6, align 8
  %25 = load ptr, ptr %7, align 8
  %26 = load ptr, ptr %8, align 8
  %27 = load i32, ptr %11, align 4
  %28 = call zeroext i16 @elem_v(ptr noundef %24, ptr noundef %25, ptr noundef %26, i32 noundef 5, i32 noundef 51, i32 noundef %27, ptr noundef null)
  %29 = zext i16 %28 to i32
  store i32 %29, ptr %12, align 4
  %30 = icmp ugt i32 %29, 0
  br i1 %30, label %31, label %38

31:                                               ; preds = %23
  %32 = load i32, ptr %12, align 4
  %33 = load i32, ptr %11, align 4
  %34 = add i32 %33, %32
  store i32 %34, ptr %11, align 4
  %35 = load i32, ptr %12, align 4
  %36 = load i32, ptr %13, align 4
  %37 = sub i32 %36, %35
  store i32 %37, ptr %13, align 4
  br label %45

38:                                               ; preds = %23, %5
  %39 = load ptr, ptr %7, align 8
  %40 = load ptr, ptr %8, align 8
  %41 = load ptr, ptr %6, align 8
  %42 = load i32, ptr %11, align 4
  %43 = call ptr @get_gsm_a_msg_string(i32 noundef 5, i32 noundef 51)
  %44 = call ptr (ptr, ptr, ptr, ptr, i32, i32, ptr, ...) @proto_tree_add_expert_format(ptr noundef %39, ptr noundef %40, ptr noundef @ei_gsm_a_gm_missing_mandatory_element, ptr noundef %41, i32 noundef %42, i32 noundef 0, ptr noundef @.str.1095, ptr noundef %43, ptr noundef @.str.83)
  br label %45

45:                                               ; preds = %38, %31
  %46 = load i32, ptr %13, align 4
  %47 = icmp sle i32 %46, 0
  br i1 %47, label %48, label %49

48:                                               ; preds = %45
  store i32 1, ptr %14, align 4
  br label %161

49:                                               ; preds = %45
  %50 = load ptr, ptr %6, align 8
  %51 = load ptr, ptr %7, align 8
  %52 = load ptr, ptr %8, align 8
  %53 = load i32, ptr %11, align 4
  %54 = load i32, ptr %13, align 4
  %55 = call zeroext i16 @elem_tlv(ptr noundef %50, ptr noundef %51, ptr noundef %52, i8 noundef zeroext 39, i32 noundef 5, i32 noundef 45, i32 noundef %53, i32 noundef %54, ptr noundef null)
  %56 = zext i16 %55 to i32
  store i32 %56, ptr %12, align 4
  %57 = icmp ugt i32 %56, 0
  br i1 %57, label %58, label %65

58:                                               ; preds = %49
  %59 = load i32, ptr %12, align 4
  %60 = load i32, ptr %11, align 4
  %61 = add i32 %60, %59
  store i32 %61, ptr %11, align 4
  %62 = load i32, ptr %12, align 4
  %63 = load i32, ptr %13, align 4
  %64 = sub i32 %63, %62
  store i32 %64, ptr %13, align 4
  br label %65

65:                                               ; preds = %58, %49
  %66 = load i32, ptr %13, align 4
  %67 = icmp sle i32 %66, 0
  br i1 %67, label %68, label %69

68:                                               ; preds = %65
  store i32 1, ptr %14, align 4
  br label %161

69:                                               ; preds = %65
  %70 = load ptr, ptr %6, align 8
  %71 = load ptr, ptr %7, align 8
  %72 = load ptr, ptr %8, align 8
  %73 = load i32, ptr %11, align 4
  %74 = load i32, ptr %13, align 4
  %75 = call zeroext i16 @elem_tlv(ptr noundef %70, ptr noundef %71, ptr noundef %72, i8 noundef zeroext 55, i32 noundef 5, i32 noundef 71, i32 noundef %73, i32 noundef %74, ptr noundef @.str.1136)
  %76 = zext i16 %75 to i32
  store i32 %76, ptr %12, align 4
  %77 = icmp ugt i32 %76, 0
  br i1 %77, label %78, label %85

78:                                               ; preds = %69
  %79 = load i32, ptr %12, align 4
  %80 = load i32, ptr %11, align 4
  %81 = add i32 %80, %79
  store i32 %81, ptr %11, align 4
  %82 = load i32, ptr %12, align 4
  %83 = load i32, ptr %13, align 4
  %84 = sub i32 %83, %82
  store i32 %84, ptr %13, align 4
  br label %85

85:                                               ; preds = %78, %69
  %86 = load i32, ptr %13, align 4
  %87 = icmp sle i32 %86, 0
  br i1 %87, label %88, label %89

88:                                               ; preds = %85
  store i32 1, ptr %14, align 4
  br label %161

89:                                               ; preds = %85
  %90 = load ptr, ptr %6, align 8
  %91 = load ptr, ptr %7, align 8
  %92 = load ptr, ptr %8, align 8
  %93 = load i32, ptr %11, align 4
  %94 = load i32, ptr %13, align 4
  %95 = call zeroext i16 @elem_tlv(ptr noundef %90, ptr noundef %91, ptr noundef %92, i8 noundef zeroext 107, i32 noundef 5, i32 noundef 49, i32 noundef %93, i32 noundef %94, ptr noundef null)
  %96 = zext i16 %95 to i32
  store i32 %96, ptr %12, align 4
  %97 = icmp ugt i32 %96, 0
  br i1 %97, label %98, label %105

98:                                               ; preds = %89
  %99 = load i32, ptr %12, align 4
  %100 = load i32, ptr %11, align 4
  %101 = add i32 %100, %99
  store i32 %101, ptr %11, align 4
  %102 = load i32, ptr %12, align 4
  %103 = load i32, ptr %13, align 4
  %104 = sub i32 %103, %102
  store i32 %104, ptr %13, align 4
  br label %105

105:                                              ; preds = %98, %89
  %106 = load i32, ptr %13, align 4
  %107 = icmp sle i32 %106, 0
  br i1 %107, label %108, label %109

108:                                              ; preds = %105
  store i32 1, ptr %14, align 4
  br label %161

109:                                              ; preds = %105
  %110 = load ptr, ptr %6, align 8
  %111 = load ptr, ptr %7, align 8
  %112 = load ptr, ptr %8, align 8
  %113 = load i32, ptr %11, align 4
  %114 = load i32, ptr %13, align 4
  %115 = call zeroext i16 @elem_tlv(ptr noundef %110, ptr noundef %111, ptr noundef %112, i8 noundef zeroext 51, i32 noundef 5, i32 noundef 66, i32 noundef %113, i32 noundef %114, ptr noundef null)
  %116 = zext i16 %115 to i32
  store i32 %116, ptr %12, align 4
  %117 = icmp ugt i32 %116, 0
  br i1 %117, label %118, label %125

118:                                              ; preds = %109
  %119 = load i32, ptr %12, align 4
  %120 = load i32, ptr %11, align 4
  %121 = add i32 %120, %119
  store i32 %121, ptr %11, align 4
  %122 = load i32, ptr %12, align 4
  %123 = load i32, ptr %13, align 4
  %124 = sub i32 %123, %122
  store i32 %124, ptr %13, align 4
  br label %125

125:                                              ; preds = %118, %109
  %126 = load i32, ptr %13, align 4
  %127 = icmp sle i32 %126, 0
  br i1 %127, label %128, label %129

128:                                              ; preds = %125
  store i32 1, ptr %14, align 4
  br label %161

129:                                              ; preds = %125
  %130 = load ptr, ptr %6, align 8
  %131 = load ptr, ptr %7, align 8
  %132 = load ptr, ptr %8, align 8
  %133 = load i32, ptr %11, align 4
  %134 = load i32, ptr %13, align 4
  %135 = call zeroext i16 @elem_tlv_e(ptr noundef %130, ptr noundef %131, ptr noundef %132, i8 noundef zeroext 123, i32 noundef 5, i32 noundef 46, i32 noundef %133, i32 noundef %134, ptr noundef null)
  %136 = zext i16 %135 to i32
  store i32 %136, ptr %12, align 4
  %137 = icmp ugt i32 %136, 0
  br i1 %137, label %138, label %145

138:                                              ; preds = %129
  %139 = load i32, ptr %12, align 4
  %140 = load i32, ptr %11, align 4
  %141 = add i32 %140, %139
  store i32 %141, ptr %11, align 4
  %142 = load i32, ptr %12, align 4
  %143 = load i32, ptr %13, align 4
  %144 = sub i32 %143, %142
  store i32 %144, ptr %13, align 4
  br label %145

145:                                              ; preds = %138, %129
  %146 = load i32, ptr %13, align 4
  %147 = icmp ugt i32 %146, 0
  br i1 %147, label %148, label %160

148:                                              ; preds = %145
  %149 = load ptr, ptr %7, align 8
  %150 = load ptr, ptr %8, align 8
  %151 = load ptr, ptr %6, align 8
  %152 = load i32, ptr %11, align 4
  %153 = load i32, ptr %13, align 4
  %154 = sub i32 %153, 0
  %155 = call ptr @proto_tree_add_expert(ptr noundef %149, ptr noundef %150, ptr noundef @ei_gsm_a_gm_extraneous_data, ptr noundef %151, i32 noundef %152, i32 noundef %154)
  %156 = load i32, ptr %13, align 4
  %157 = sub i32 %156, 0
  %158 = load i32, ptr %11, align 4
  %159 = add i32 %158, %157
  store i32 %159, ptr %11, align 4
  br label %160

160:                                              ; preds = %148, %145
  store i32 0, ptr %14, align 4
  br label %161

161:                                              ; preds = %160, %128, %108, %88, %68, %48
  call void @llvm.lifetime.end.p0(i64 4, ptr %13) #6
  call void @llvm.lifetime.end.p0(i64 4, ptr %12) #6
  call void @llvm.lifetime.end.p0(i64 4, ptr %11) #6
  %162 = load i32, ptr %14, align 4
  switch i32 %162, label %164 [
    i32 0, label %163
    i32 1, label %163
  ]

163:                                              ; preds = %161, %161
  ret void

164:                                              ; preds = %161
  unreachable
}